; Function Attrs: mustprogress uwtable
define noundef nonnull align 8 dereferenceable(24) ptr @_ZNK8QuantLib25CotSwapFromFwdCorrelation9rateTimesEv(ptr nocapture noundef nonnull readonly align 8 dereferenceable(56) %this) unnamed_addr #2 align 2 {
entry:
  %fwdCorr_ = getelementptr inbounds nuw i8, ptr %this, i64 8
  %0 = load ptr, ptr %fwdCorr_, align 8, !tbaa !21
  %cmp.not.i = icmp eq ptr %0, null
  br i1 %cmp.not.i, label %cond.false.i, label %_ZNK5boost10shared_ptrIN8QuantLib28PiecewiseConstantCorrelationEEptEv.exit, !prof !23

cond.false.i:                                     ; preds = %entry
  tail call void @_ZN5boost16assertion_failedEPKcS1_S1_l(ptr noundef nonnull @.str.15, ptr noundef nonnull @__PRETTY_FUNCTION__._ZNK5boost10shared_ptrIN8QuantLib28PiecewiseConstantCorrelationEEptEv, ptr noundef nonnull @.str.16, i64 noundef 784)
  %.pre.i = load ptr, ptr %fwdCorr_, align 8, !tbaa !21
  br label %_ZNK5boost10shared_ptrIN8QuantLib28PiecewiseConstantCorrelationEEptEv.exit

_ZNK5boost10shared_ptrIN8QuantLib28PiecewiseConstantCorrelationEEptEv.exit: ; preds = %entry, %cond.false.i
  %1 = phi ptr [ %0, %entry ], [ %.pre.i, %cond.false.i ]
  %vtable = load ptr, ptr %1, align 8, !tbaa !3
  %vfn = getelementptr inbounds i8, ptr %vtable, i64 24
  %2 = load ptr, ptr %vfn, align 8
  %call2 = tail call noundef nonnull align 8 dereferenceable(24) ptr %2(ptr noundef nonnull align 8 dereferenceable(8) %1)
  ret ptr %call2
}